target datalayout = "e-m:e-p270:32:32-p271:32:32-p272:64:64-i64:64-i128:128-f80:128-n8:16:32:64-S128"
target triple = "x86_64-pc-linux-gnu"

%"class.tinyxml2::StrPair" = type { i32, ptr, ptr }
%"class.tinyxml2::XMLDocument" = type { %"class.tinyxml2::XMLNode", i8, i8, i32, i32, %"class.tinyxml2::StrPair", i32, ptr, i32, i32, %"class.tinyxml2::DynArray", %"class.tinyxml2::MemPoolT", %"class.tinyxml2::MemPoolT.1", %"class.tinyxml2::MemPoolT.3", %"class.tinyxml2::MemPoolT.5" }
%"class.tinyxml2::XMLNode" = type { ptr, ptr, ptr, %"class.tinyxml2::StrPair", i32, ptr, ptr, ptr, ptr, ptr, ptr }
%"class.tinyxml2::DynArray" = type { ptr, [10 x ptr], i32, i32 }
%"class.tinyxml2::MemPoolT" = type { %"class.tinyxml2::MemPool", %"class.tinyxml2::DynArray.0", ptr, i32, i32, i32, i32 }
%"class.tinyxml2::MemPool" = type { ptr }
%"class.tinyxml2::DynArray.0" = type { ptr, [10 x ptr], i32, i32 }
%"class.tinyxml2::MemPoolT.1" = type { %"class.tinyxml2::MemPool", %"class.tinyxml2::DynArray.2", ptr, i32, i32, i32, i32 }
%"class.tinyxml2::DynArray.2" = type { ptr, [10 x ptr], i32, i32 }
%"class.tinyxml2::MemPoolT.3" = type { %"class.tinyxml2::MemPool", %"class.tinyxml2::DynArray.4", ptr, i32, i32, i32, i32 }
%"class.tinyxml2::DynArray.4" = type { ptr, [10 x ptr], i32, i32 }
%"class.tinyxml2::MemPoolT.5" = type { %"class.tinyxml2::MemPool", %"class.tinyxml2::DynArray.6", ptr, i32, i32, i32, i32 }
%"class.tinyxml2::DynArray.6" = type { ptr, [10 x ptr], i32, i32 }
%struct.__va_list_tag = type { i32, i32, ptr, ptr }

@.str.52 = private unnamed_addr constant [42 x i8] c"Error=%s ErrorID=%d (0x%x) Line number=%d\00", align 1
@.str.53 = private unnamed_addr constant [3 x i8] c": \00", align 1

; Function Attrs: mustprogress uwtable
define void @_ZN8tinyxml27StrPair6SetStrEPKci(ptr noundef nonnull align 8 dereferenceable(24) %0, ptr noundef %1, i32 noundef %2) #2 align 2 {
  %4 = alloca ptr, align 8
  %5 = alloca ptr, align 8
  %6 = alloca i32, align 4
  %7 = alloca i64, align 8
  store ptr %0, ptr %4, align 8, !tbaa !3
  store ptr %1, ptr %5, align 8, !tbaa !14
  store i32 %2, ptr %6, align 4, !tbaa !15
  %8 = load ptr, ptr %4, align 8
  call void @_ZN8tinyxml27StrPair5ResetEv(ptr noundef nonnull align 8 dereferenceable(24) %8)
  call void @llvm.lifetime.start.p0(i64 8, ptr %7) #18
  %9 = load ptr, ptr %5, align 8, !tbaa !14
  %10 = call i64 @strlen(ptr noundef %9) #19
  store i64 %10, ptr %7, align 8, !tbaa !16
  %11 = load i64, ptr %7, align 8, !tbaa !16
  %12 = add i64 %11, 1
  %13 = call noalias noundef nonnull ptr @_Znam(i64 noundef %12) #20
  %14 = getelementptr inbounds nuw %"class.tinyxml2::StrPair", ptr %8, i32 0, i32 1
  store ptr %13, ptr %14, align 8, !tbaa !12
  %15 = getelementptr inbounds nuw %"class.tinyxml2::StrPair", ptr %8, i32 0, i32 1
  %16 = load ptr, ptr %15, align 8, !tbaa !12
  %17 = load ptr, ptr %5, align 8, !tbaa !14
  %18 = load i64, ptr %7, align 8, !tbaa !16
  %19 = add i64 %18, 1
  call void @llvm.memcpy.p0.p0.i64(ptr align 1 %16, ptr align 1 %17, i64 %19, i1 false)
  %20 = getelementptr inbounds nuw %"class.tinyxml2::StrPair", ptr %8, i32 0, i32 1
  %21 = load ptr, ptr %20, align 8, !tbaa !12
  %22 = load i64, ptr %7, align 8, !tbaa !16
  %23 = getelementptr inbounds nuw i8, ptr %21, i64 %22
  %24 = getelementptr inbounds nuw %"class.tinyxml2::StrPair", ptr %8, i32 0, i32 2
  store ptr %23, ptr %24, align 8, !tbaa !13
  %25 = load i32, ptr %6, align 4, !tbaa !15
  %26 = or i32 %25, 512
  %27 = getelementptr inbounds nuw %"class.tinyxml2::StrPair", ptr %8, i32 0, i32 0
  store i32 %26, ptr %27, align 8, !tbaa !8
  call void @llvm.lifetime.end.p0(i64 8, ptr %7) #18
  ret void
}

; Function Attrs: mustprogress nounwind uwtable
define noundef ptr @_ZN8tinyxml211XMLDocument13ErrorIDToNameENS_8XMLErrorE(i32 noundef %0) #0 align 2 {
  %2 = alloca i32, align 4
  %3 = alloca ptr, align 8
  store i32 %0, ptr %2, align 4, !tbaa !131
  call void @llvm.lifetime.start.p0(i64 8, ptr %3) #18
  %4 = load i32, ptr %2, align 4, !tbaa !131
  %5 = zext i32 %4 to i64
  %6 = getelementptr inbounds nuw [19 x ptr], ptr @_ZN8tinyxml211XMLDocument11_errorNamesE, i64 0, i64 %5
  %7 = load ptr, ptr %6, align 8, !tbaa !14
  store ptr %7, ptr %3, align 8, !tbaa !14
  %8 = load ptr, ptr %3, align 8, !tbaa !14
  call void @llvm.lifetime.end.p0(i64 8, ptr %3) #18
  ret ptr %8
}

; Function Attrs: mustprogress nounwind uwtable
define void @_ZN8tinyxml27StrPair5ResetEv(ptr noundef nonnull align 8 dereferenceable(24) %0) #0 align 2 {
  %2 = alloca ptr, align 8
  store ptr %0, ptr %2, align 8, !tbaa !3
  %3 = load ptr, ptr %2, align 8
  %4 = getelementptr inbounds nuw %"class.tinyxml2::StrPair", ptr %3, i32 0, i32 0
  %5 = load i32, ptr %4, align 8, !tbaa !8
  %6 = and i32 %5, 512
  %7 = icmp ne i32 %6, 0
  br i1 %7, label %8, label %14

8:                                                ; preds = %1
  %9 = getelementptr inbounds nuw %"class.tinyxml2::StrPair", ptr %3, i32 0, i32 1
  %10 = load ptr, ptr %9, align 8, !tbaa !12
  %11 = icmp eq ptr %10, null
  br i1 %11, label %13, label %12

12:                                               ; preds = %8
  call void @_ZdaPv(ptr noundef %10) #17
  br label %13

13:                                               ; preds = %12, %8
  br label %14

14:                                               ; preds = %13, %1
  %15 = getelementptr inbounds nuw %"class.tinyxml2::StrPair", ptr %3, i32 0, i32 0
  store i32 0, ptr %15, align 8, !tbaa !8
  %16 = getelementptr inbounds nuw %"class.tinyxml2::StrPair", ptr %3, i32 0, i32 1
  store ptr null, ptr %16, align 8, !tbaa !12
  %17 = getelementptr inbounds nuw %"class.tinyxml2::StrPair", ptr %3, i32 0, i32 2
  store ptr null, ptr %17, align 8, !tbaa !13
  ret void
}

; Function Attrs: mustprogress uwtable
define void @_ZN8tinyxml211XMLDocument8SetErrorENS_8XMLErrorEiPKcz(ptr noundef nonnull align 8 dereferenceable(776) %0, i32 noundef %1, i32 noundef %2, ptr noundef %3, ...) #2 align 2 {
  %5 = alloca ptr, align 8
  %6 = alloca i32, align 4
  %7 = alloca i32, align 4
  %8 = alloca ptr, align 8
  %9 = alloca i64, align 8
  %10 = alloca ptr, align 8
  %11 = alloca i64, align 8
  %12 = alloca [1 x %struct.__va_list_tag], align 16
  store ptr %0, ptr %5, align 8, !tbaa !56
  store i32 %1, ptr %6, align 4, !tbaa !131
  store i32 %2, ptr %7, align 4, !tbaa !15
  store ptr %3, ptr %8, align 8, !tbaa !14
  %13 = load ptr, ptr %5, align 8
  %14 = load i32, ptr %6, align 4, !tbaa !131
  %15 = getelementptr inbounds nuw %"class.tinyxml2::XMLDocument", ptr %13, i32 0, i32 3
  store i32 %14, ptr %15, align 4, !tbaa !130
  %16 = load i32, ptr %7, align 4, !tbaa !15
  %17 = getelementptr inbounds nuw %"class.tinyxml2::XMLDocument", ptr %13, i32 0, i32 6
  store i32 %16, ptr %17, align 8, !tbaa !132
  %18 = getelementptr inbounds nuw %"class.tinyxml2::XMLDocument", ptr %13, i32 0, i32 5
  call void @_ZN8tinyxml27StrPair5ResetEv(ptr noundef nonnull align 8 dereferenceable(24) %18)
  call void @llvm.lifetime.start.p0(i64 8, ptr %9) #18
  store i64 1000, ptr %9, align 8, !tbaa !16
  call void @llvm.lifetime.start.p0(i64 8, ptr %10) #18
  %19 = call noalias noundef nonnull ptr @_Znam(i64 noundef 1000) #20
  store ptr %19, ptr %10, align 8, !tbaa !14
  %20 = load ptr, ptr %10, align 8, !tbaa !14
  %21 = load i32, ptr %6, align 4, !tbaa !131
  %22 = call noundef ptr @_ZN8tinyxml211XMLDocument13ErrorIDToNameENS_8XMLErrorE(i32 noundef %21)
  %23 = load i32, ptr %6, align 4, !tbaa !131
  %24 = load i32, ptr %6, align 4, !tbaa !131
  %25 = load i32, ptr %7, align 4, !tbaa !15
  %26 = call i32 (ptr, i64, ptr, ...) @snprintf(ptr noundef %20, i64 noundef 1000, ptr noundef @.str.52, ptr noundef %22, i32 noundef %23, i32 noundef %24, i32 noundef %25) #18
  %27 = load ptr, ptr %8, align 8, !tbaa !14
  %28 = icmp ne ptr %27, null
  br i1 %28, label %29, label %50

29:                                               ; preds = %4
  call void @llvm.lifetime.start.p0(i64 8, ptr %11) #18
  %30 = load ptr, ptr %10, align 8, !tbaa !14
  %31 = call i64 @strlen(ptr noundef %30) #19
  store i64 %31, ptr %11, align 8, !tbaa !16
  %32 = load ptr, ptr %10, align 8, !tbaa !14
  %33 = load i64, ptr %11, align 8, !tbaa !16
  %34 = getelementptr inbounds nuw i8, ptr %32, i64 %33
  %35 = load i64, ptr %11, align 8, !tbaa !16
  %36 = sub i64 1000, %35
  %37 = call i32 (ptr, i64, ptr, ...) @snprintf(ptr noundef %34, i64 noundef %36, ptr noundef @.str.53) #18
  %38 = load ptr, ptr %10, align 8, !tbaa !14
  %39 = call i64 @strlen(ptr noundef %38) #19
  store i64 %39, ptr %11, align 8, !tbaa !16
  call void @llvm.lifetime.start.p0(i64 24, ptr %12) #18
  %40 = getelementptr inbounds [1 x %struct.__va_list_tag], ptr %12, i64 0, i64 0
  call void @llvm.va_start.p0(ptr %40)
  %41 = load ptr, ptr %10, align 8, !tbaa !14
  %42 = load i64, ptr %11, align 8, !tbaa !16
  %43 = getelementptr inbounds nuw i8, ptr %41, i64 %42
  %44 = load i64, ptr %11, align 8, !tbaa !16
  %45 = sub i64 1000, %44
  %46 = load ptr, ptr %8, align 8, !tbaa !14
  %47 = getelementptr inbounds [1 x %struct.__va_list_tag], ptr %12, i64 0, i64 0
  %48 = call i32 @vsnprintf(ptr noundef %43, i64 noundef %45, ptr noundef %46, ptr noundef %47) #18
  %49 = getelementptr inbounds [1 x %struct.__va_list_tag], ptr %12, i64 0, i64 0
  call void @llvm.va_end.p0(ptr %49)
  call void @llvm.lifetime.end.p0(i64 24, ptr %12) #18
  call void @llvm.lifetime.end.p0(i64 8, ptr %11) #18
  br label %50

50:                                               ; preds = %29, %4
  %51 = getelementptr inbounds nuw %"class.tinyxml2::XMLDocument", ptr %13, i32 0, i32 5
  %52 = load ptr, ptr %10, align 8, !tbaa !14
  call void @_ZN8tinyxml27StrPair6SetStrEPKci(ptr noundef nonnull align 8 dereferenceable(24) %51, ptr noundef %52, i32 noundef 0)
  %53 = load ptr, ptr %10, align 8, !tbaa !14
  %54 = icmp eq ptr %53, null
  br i1 %54, label %56, label %55

55:                                               ; preds = %50
  call void @_ZdaPv(ptr noundef %53) #17
  br label %56

56:                                               ; preds = %55, %50
  call void @llvm.lifetime.end.p0(i64 8, ptr %10) #18
  call void @llvm.lifetime.end.p0(i64 8, ptr %9) #18
  ret void
}