; Function Attrs: mustprogress uwtable
define void @_ZN8tinyxml211XMLDocument8SetErrorENS_8XMLErrorEiPKcz(ptr noundef nonnull align 8 captures(none) dereferenceable(776) initializes((108, 112), (136, 148)) %0, i32 noundef %1, i32 noundef %2, ptr noundef readonly captures(address_is_null) %3, ...) local_unnamed_addr #4 align 2 {
  %5 = alloca [1 x %struct.__va_list_tag], align 16
  %6 = getelementptr inbounds nuw i8, ptr %0, i64 108
  store i32 %1, ptr %6, align 4, !tbaa !88
  %7 = getelementptr inbounds nuw i8, ptr %0, i64 144
  store i32 %2, ptr %7, align 8, !tbaa !93
  %8 = getelementptr inbounds nuw i8, ptr %0, i64 120
  %9 = load i32, ptr %8, align 8, !tbaa !3
  %10 = and i32 %9, 512
  %.not.i = icmp eq i32 %10, 0
  br i1 %.not.i, label %_ZN8tinyxml27StrPair5ResetEv.exit, label %11

11:                                               ; preds = %4
  %12 = getelementptr inbounds nuw i8, ptr %0, i64 128
  %13 = load ptr, ptr %12, align 8, !tbaa !10
  %14 = icmp eq ptr %13, null
  br i1 %14, label %_ZN8tinyxml27StrPair5ResetEv.exit, label %15

15:                                               ; preds = %11
  tail call void @_ZdaPv(ptr noundef nonnull %13) #30
  br label %_ZN8tinyxml27StrPair5ResetEv.exit

_ZN8tinyxml27StrPair5ResetEv.exit:                ; preds = %4, %11, %15
  store i32 0, ptr %8, align 8, !tbaa !3
  %16 = getelementptr inbounds nuw i8, ptr %0, i64 128
  tail call void @llvm.memset.p0.i64(ptr noundef nonnull align 8 dereferenceable(16) %16, i8 0, i64 16, i1 false)
  %17 = tail call noalias noundef nonnull dereferenceable(1000) ptr @_Znam(i64 noundef 1000) #34
  %18 = zext i32 %1 to i64
  %19 = getelementptr inbounds nuw [19 x ptr], ptr @_ZN8tinyxml211XMLDocument11_errorNamesE, i64 0, i64 %18
  %20 = load ptr, ptr %19, align 8, !tbaa !29
  %21 = tail call i32 (ptr, i64, ptr, ...) @snprintf(ptr noundef nonnull dereferenceable(1) %17, i64 noundef 1000, ptr noundef nonnull @.str.52, ptr noundef %20, i32 noundef %1, i32 noundef %1, i32 noundef %2) #31
  %.not = icmp eq ptr %3, null
  br i1 %.not, label %31, label %22

22:                                               ; preds = %_ZN8tinyxml27StrPair5ResetEv.exit
  %23 = tail call i64 @strlen(ptr noundef nonnull dereferenceable(1) %17) #33
  %24 = getelementptr inbounds nuw i8, ptr %17, i64 %23
  %25 = sub i64 1000, %23
  %26 = tail call i32 (ptr, i64, ptr, ...) @snprintf(ptr noundef nonnull %24, i64 noundef %25, ptr noundef nonnull @.str.53) #31
  %27 = tail call i64 @strlen(ptr noundef nonnull dereferenceable(1) %17) #33
  call void @llvm.lifetime.start.p0(i64 24, ptr nonnull %5) #31
  call void @llvm.va_start.p0(ptr nonnull %5)
  %28 = getelementptr inbounds nuw i8, ptr %17, i64 %27
  %29 = sub i64 1000, %27
  %30 = call i32 @vsnprintf(ptr noundef nonnull %28, i64 noundef %29, ptr noundef nonnull %3, ptr noundef nonnull %5) #31
  call void @llvm.va_end.p0(ptr nonnull %5)
  call void @llvm.lifetime.end.p0(i64 24, ptr nonnull %5) #31
  br label %31

31:                                               ; preds = %22, %_ZN8tinyxml27StrPair5ResetEv.exit
  %32 = load i32, ptr %8, align 8, !tbaa !3
  %33 = and i32 %32, 512
  %.not.i.i = icmp eq i32 %33, 0
  br i1 %.not.i.i, label %_ZN8tinyxml27StrPair6SetStrEPKci.exit, label %34

34:                                               ; preds = %31
  %35 = load ptr, ptr %16, align 8, !tbaa !10
  %36 = icmp eq ptr %35, null
  br i1 %36, label %_ZN8tinyxml27StrPair6SetStrEPKci.exit, label %37

37:                                               ; preds = %34
  call void @_ZdaPv(ptr noundef nonnull %35) #30
  br label %_ZN8tinyxml27StrPair6SetStrEPKci.exit

_ZN8tinyxml27StrPair6SetStrEPKci.exit:            ; preds = %31, %34, %37
  store i32 0, ptr %8, align 8, !tbaa !3
  call void @llvm.memset.p0.i64(ptr noundef nonnull align 8 dereferenceable(16) %16, i8 0, i64 16, i1 false)
  %38 = call i64 @strlen(ptr noundef nonnull readonly dereferenceable(1) %17) #33
  %39 = add i64 %38, 1
  %40 = call noalias noundef nonnull ptr @_Znam(i64 noundef %39) #34
  store ptr %40, ptr %16, align 8, !tbaa !10
  call void @llvm.memcpy.p0.p0.i64(ptr nonnull align 1 %40, ptr nonnull readonly align 1 %17, i64 %39, i1 false)
  %41 = getelementptr inbounds nuw i8, ptr %40, i64 %38
  %42 = getelementptr inbounds nuw i8, ptr %0, i64 136
  store ptr %41, ptr %42, align 8, !tbaa !11
  store i32 512, ptr %8, align 8, !tbaa !3
  call void @_ZdaPv(ptr noundef nonnull %17) #30
  ret void
}